; Function Attrs: mustprogress uwtable
define hidden noundef nonnull ptr @_ZN2cv12ppf_match_3d12indexPCFlannENS_3MatE(ptr noundef %0) local_unnamed_addr #3 personality ptr @__gxx_personality_v0 {
  %2 = alloca %"class.cv::Range", align 8
  %3 = alloca %"class.cv::Range", align 4
  %4 = alloca %"class.cv::Mat", align 8
  %5 = alloca %"class.cv::Mat", align 8
  %6 = alloca %"class.cv::_OutputArray", align 8
  %7 = alloca %"struct.cvflann::KDTreeSingleIndexParams", align 8
  call void @llvm.lifetime.start.p0(i64 96, ptr nonnull %4) #36
  call void @_ZN2cv3MatC1Ev(ptr noundef nonnull align 8 dereferenceable(96) %4) #36
  call void @llvm.lifetime.start.p0(i64 96, ptr nonnull %5) #36
  call void @llvm.lifetime.start.p0(i64 8, ptr nonnull %2) #36, !noalias !117
  store i64 9223372034707292160, ptr %2, align 8, !noalias !117
  call void @llvm.lifetime.start.p0(i64 8, ptr nonnull %3) #36, !noalias !117
  store i32 0, ptr %3, align 4, !tbaa !95, !noalias !117
  %8 = getelementptr inbounds nuw i8, ptr %3, i64 4
  store i32 3, ptr %8, align 4, !tbaa !97, !noalias !117
  invoke void @_ZN2cv3MatC1ERKS0_RKNS_5RangeES5_(ptr noundef nonnull align 8 dereferenceable(96) %5, ptr noundef nonnull align 8 dereferenceable(96) %0, ptr noundef nonnull align 4 dereferenceable(8) %2, ptr noundef nonnull align 4 dereferenceable(8) %3)
          to label %9 unwind label %22

9:                                                ; preds = %1
  call void @llvm.lifetime.end.p0(i64 8, ptr nonnull %3) #36, !noalias !117
  call void @llvm.lifetime.end.p0(i64 8, ptr nonnull %2) #36, !noalias !117
  call void @llvm.lifetime.start.p0(i64 24, ptr nonnull %6) #36
  %10 = getelementptr inbounds nuw i8, ptr %6, i64 8
  %11 = getelementptr inbounds nuw i8, ptr %6, i64 16
  store i64 0, ptr %11, align 8
  store i32 33619968, ptr %6, align 8, !tbaa !101
  store ptr %4, ptr %10, align 8, !tbaa !104
  invoke void @_ZNK2cv3Mat6copyToERKNS_12_OutputArrayE(ptr noundef nonnull align 8 dereferenceable(96) %5, ptr noundef nonnull align 8 dereferenceable(24) %6)
          to label %12 unwind label %24

12:                                               ; preds = %9
  call void @llvm.lifetime.end.p0(i64 24, ptr nonnull %6) #36
  call void @_ZN2cv3MatD1Ev(ptr noundef nonnull align 8 dereferenceable(96) %5) #36
  call void @llvm.lifetime.end.p0(i64 96, ptr nonnull %5) #36
  %13 = invoke noalias noundef nonnull dereferenceable(104) ptr @_Znwm(i64 noundef 104) #40
          to label %14 unwind label %27

14:                                               ; preds = %12
  call void @llvm.lifetime.start.p0(i64 48, ptr nonnull %7) #36
  invoke void @_ZN7cvflann23KDTreeSingleIndexParamsC2Eibi(ptr noundef nonnull align 8 dereferenceable(48) %7, i32 noundef 8, i1 noundef zeroext true, i32 noundef -1)
          to label %15 unwind label %29

15:                                               ; preds = %14
  invoke void @_ZN2cv5flann12GenericIndexIN7cvflann2L2IfEEEC2ERKNS_3MatERKSt3mapINSt7__cxx1112basic_stringIcSt11char_traitsIcESaIcEEENS2_3anyESt4lessISF_ESaISt4pairIKSF_SG_EEES4_(ptr noundef nonnull align 8 dereferenceable(104) %13, ptr noundef nonnull align 8 dereferenceable(96) %4, ptr noundef nonnull align 8 dereferenceable(48) %7)
          to label %16 unwind label %31

16:                                               ; preds = %15
  %17 = getelementptr inbounds nuw i8, ptr %7, i64 16
  %18 = load ptr, ptr %17, align 8, !tbaa !120
  invoke void @_ZNSt8_Rb_treeINSt7__cxx1112basic_stringIcSt11char_traitsIcESaIcEEESt4pairIKS5_N7cvflann3anyEESt10_Select1stISA_ESt4lessIS5_ESaISA_EE8_M_eraseEPSt13_Rb_tree_nodeISA_E(ptr noundef nonnull align 8 dereferenceable(48) %7, ptr noundef %18)
          to label %_ZNSt3mapINSt7__cxx1112basic_stringIcSt11char_traitsIcESaIcEEEN7cvflann3anyESt4lessIS5_ESaISt4pairIKS5_S7_EEED2Ev.exit unwind label %19

19:                                               ; preds = %16
  %20 = landingpad { ptr, i32 }
          catch ptr null
  %21 = extractvalue { ptr, i32 } %20, 0
  call void @__clang_call_terminate(ptr %21) #41
  unreachable

_ZNSt3mapINSt7__cxx1112basic_stringIcSt11char_traitsIcESaIcEEEN7cvflann3anyESt4lessIS5_ESaISt4pairIKS5_S7_EEED2Ev.exit: ; preds = %16
  call void @llvm.lifetime.end.p0(i64 48, ptr nonnull %7) #36
  call void @_ZN2cv3MatD1Ev(ptr noundef nonnull align 8 dereferenceable(96) %4) #36
  call void @llvm.lifetime.end.p0(i64 96, ptr nonnull %4) #36
  ret ptr %13

22:                                               ; preds = %1
  %23 = landingpad { ptr, i32 }
          cleanup
  br label %26

24:                                               ; preds = %9
  %25 = landingpad { ptr, i32 }
          cleanup
  call void @llvm.lifetime.end.p0(i64 24, ptr nonnull %6) #36
  call void @_ZN2cv3MatD1Ev(ptr noundef nonnull align 8 dereferenceable(96) %5) #36
  br label %26

26:                                               ; preds = %24, %22
  %.pn.pn = phi { ptr, i32 } [ %25, %24 ], [ %23, %22 ]
  call void @llvm.lifetime.end.p0(i64 96, ptr nonnull %5) #36
  br label %34

27:                                               ; preds = %12
  %28 = landingpad { ptr, i32 }
          cleanup
  br label %34

29:                                               ; preds = %14
  %30 = landingpad { ptr, i32 }
          cleanup
  br label %33

31:                                               ; preds = %15
  %32 = landingpad { ptr, i32 }
          cleanup
  call void @_ZNSt3mapINSt7__cxx1112basic_stringIcSt11char_traitsIcESaIcEEEN7cvflann3anyESt4lessIS5_ESaISt4pairIKS5_S7_EEED2Ev(ptr noundef nonnull align 8 dereferenceable(48) %7) #36
  br label %33

33:                                               ; preds = %31, %29
  %.pn8 = phi { ptr, i32 } [ %32, %31 ], [ %30, %29 ]
  call void @llvm.lifetime.end.p0(i64 48, ptr nonnull %7) #36
  call void @_ZdlPv(ptr noundef nonnull %13) #39
  br label %34

34:                                               ; preds = %33, %27, %26
  %.pn8.pn = phi { ptr, i32 } [ %.pn8, %33 ], [ %28, %27 ], [ %.pn.pn, %26 ]
  call void @_ZN2cv3MatD1Ev(ptr noundef nonnull align 8 dereferenceable(96) %4) #36
  call void @llvm.lifetime.end.p0(i64 96, ptr nonnull %4) #36
  resume { ptr, i32 } %.pn8.pn
}